target datalayout = "e-m:e-p270:32:32-p271:32:32-p272:64:64-i64:64-i128:128-f80:128-n8:16:32:64-S128"
target triple = "x86_64-pc-linux-gnu"

@posix_names = internal constant [84 x i8] c"alpha\00lower\00upper\00alnum\00ascii\00blank\00cntrl\00digit\00graph\00print\00punct\00space\00word\00xdigit\00", align 16
@posix_name_lengths = internal constant [15 x i8] c"\05\05\05\05\05\05\05\05\05\05\05\05\04\06\00", align 1

; Function Attrs: nounwind uwtable
define internal i32 @check_posix_name(ptr noundef %0, i32 noundef %1) #0 {
  %3 = alloca i32, align 4
  %4 = alloca ptr, align 8
  %5 = alloca i32, align 4
  %6 = alloca ptr, align 8
  %7 = alloca i32, align 4
  store ptr %0, ptr %4, align 8
  store i32 %1, ptr %5, align 4
  store ptr @posix_names, ptr %6, align 8
  store i32 0, ptr %7, align 4
  br label %8

8:                                                ; preds = %32, %2
  %9 = load i32, ptr %7, align 4
  %10 = sext i32 %9 to i64
  %11 = getelementptr inbounds [15 x i8], ptr @posix_name_lengths, i64 0, i64 %10
  %12 = load i8, ptr %11, align 1
  %13 = zext i8 %12 to i32
  %14 = icmp ne i32 %13, 0
  br i1 %14, label %15, label %44

15:                                               ; preds = %8
  %16 = load i32, ptr %5, align 4
  %17 = load i32, ptr %7, align 4
  %18 = sext i32 %17 to i64
  %19 = getelementptr inbounds [15 x i8], ptr @posix_name_lengths, i64 0, i64 %18
  %20 = load i8, ptr %19, align 1
  %21 = zext i8 %20 to i32
  %22 = icmp eq i32 %16, %21
  br i1 %22, label %23, label %32

23:                                               ; preds = %15
  %24 = load ptr, ptr %4, align 8
  %25 = load ptr, ptr %6, align 8
  %26 = load i32, ptr %5, align 4
  %27 = zext i32 %26 to i64
  %28 = call i32 @_pcre2_strncmp_c8_8(ptr noundef %24, ptr noundef %25, i64 noundef %27)
  %29 = icmp eq i32 %28, 0
  br i1 %29, label %30, label %32

30:                                               ; preds = %23
  %31 = load i32, ptr %7, align 4
  store i32 %31, ptr %3, align 4
  br label %45

32:                                               ; preds = %23, %15
  %33 = load i32, ptr %7, align 4
  %34 = sext i32 %33 to i64
  %35 = getelementptr inbounds [15 x i8], ptr @posix_name_lengths, i64 0, i64 %34
  %36 = load i8, ptr %35, align 1
  %37 = zext i8 %36 to i32
  %38 = add nsw i32 %37, 1
  %39 = load ptr, ptr %6, align 8
  %40 = sext i32 %38 to i64
  %41 = getelementptr inbounds i8, ptr %39, i64 %40
  store ptr %41, ptr %6, align 8
  %42 = load i32, ptr %7, align 4
  %43 = add nsw i32 %42, 1
  store i32 %43, ptr %7, align 4
  br label %8

44:                                               ; preds = %8
  store i32 -1, ptr %3, align 4
  br label %45

45:                                               ; preds = %44, %30
  %46 = load i32, ptr %3, align 4
  ret i32 %46
}