; Function Attrs: nounwind uwtable
define internal fastcc i32 @check_posix_name(ptr noundef %0, i32 noundef %1) unnamed_addr #0 {
  %3 = zext nneg i32 %1 to i64
  br label %4

4:                                                ; preds = %2, %12
  %indvars.iv = phi i64 [ 0, %2 ], [ %indvars.iv.next, %12 ]
  %.01014 = phi ptr [ @posix_names, %2 ], [ %15, %12 ]
  %5 = getelementptr inbounds [15 x i8], ptr @posix_name_lengths, i64 0, i64 %indvars.iv
  %6 = load i8, ptr %5, align 1
  %7 = zext i8 %6 to i32
  %8 = icmp eq i32 %7, %1
  br i1 %8, label %9, label %12

9:                                                ; preds = %4
  %10 = tail call i32 @_pcre2_strncmp_c8_8(ptr noundef %0, ptr noundef %.01014, i64 noundef %3) #16
  %11 = icmp eq i32 %10, 0
  br i1 %11, label %.split.loop.exit17, label %12

12:                                               ; preds = %9, %4
  %13 = zext i8 %6 to i64
  %14 = add nuw nsw i64 %13, 1
  %15 = getelementptr inbounds i8, ptr %.01014, i64 %14
  %indvars.iv.next = add nuw nsw i64 %indvars.iv, 1
  %.not = icmp eq i64 %indvars.iv.next, 14
  br i1 %.not, label %.split.loop.exit, label %4

.split.loop.exit17:                               ; preds = %9
  %16 = trunc i64 %indvars.iv to i32
  br label %.split.loop.exit

.split.loop.exit:                                 ; preds = %12, %.split.loop.exit17
  %.011 = phi i32 [ %16, %.split.loop.exit17 ], [ -1, %12 ]
  ret i32 %.011
}